; Function Attrs: mustprogress uwtable
define void @_ZN3g2o16CameraParametersC2Ev(ptr noundef nonnull align 16 dereferenceable(56) %0) unnamed_addr #0 align 2 personality ptr @__gxx_personality_v0 {
  tail call void @_ZN3g2o9ParameterC2Ev(ptr noundef nonnull align 8 dereferenceable(12) %0)
  store ptr getelementptr inbounds nuw inrange(-16, 40) (i8, ptr @_ZTVN3g2o16CameraParametersE, i64 16), ptr %0, align 16, !tbaa !3
  %2 = getelementptr inbounds nuw i8, ptr %0, i64 16
  store double 1.000000e+00, ptr %2, align 16, !tbaa !6
  %3 = getelementptr inbounds nuw i8, ptr %0, i64 32
  %4 = getelementptr inbounds nuw i8, ptr %0, i64 48
  tail call void @llvm.memset.p0.i64(ptr noundef nonnull align 16 dereferenceable(16) %3, i8 0, i64 16, i1 false)
  store double 5.000000e-01, ptr %4, align 16, !tbaa !17
  ret void
}